	.file	"pointer.c"
	.text
	.section	.rodata.str1.1,"aMS",@progbits,1
.LC0:
	.string	"%p\n"
	.text
	.globl	manageArr
	.type	manageArr, @function
manageArr:
.LFB39:
	.cfi_startproc
	endbr64
	pushq	%rbp
	.cfi_def_cfa_offset 16
	.cfi_offset 6, -16
	pushq	%rbx
	.cfi_def_cfa_offset 24
	.cfi_offset 3, -24
	subq	$8, %rsp
	.cfi_def_cfa_offset 32
	movq	%rdi, %rbx
	movq	%rdi, %rdx
	leaq	.LC0(%rip), %rbp
	movq	%rbp, %rsi
	movl	$1, %edi
	movl	$0, %eax
	call	__printf_chk@PLT
	leaq	4(%rbx), %rdx
	movq	%rbp, %rsi
	movl	$1, %edi
	movl	$0, %eax
	call	__printf_chk@PLT
	movl	$0, (%rbx)
	movl	$1, 4(%rbx)
	addq	$8, %rsp
	.cfi_def_cfa_offset 24
	popq	%rbx
	.cfi_def_cfa_offset 16
	popq	%rbp
	.cfi_def_cfa_offset 8
	ret
	.cfi_endproc
.LFE39:
	.size	manageArr, .-manageArr
	.section	.rodata.str1.1
.LC1:
	.string	"%d\n"
	.text
	.globl	showArr
	.type	showArr, @function
showArr:
.LFB40:
	.cfi_startproc
	endbr64
	pushq	%r12
	.cfi_def_cfa_offset 16
	.cfi_offset 12, -16
	pushq	%rbp
	.cfi_def_cfa_offset 24
	.cfi_offset 6, -24
	pushq	%rbx
	.cfi_def_cfa_offset 32
	.cfi_offset 3, -32
	movq	%rdi, %r12
	movl	%esi, %ebp
	movl	$0, %ebx
	jmp	.L4
.L5:
	movslq	%ebx, %rax
	movl	(%r12,%rax,4), %edx
	leaq	.LC1(%rip), %rsi
	movl	$1, %edi
	movl	$0, %eax
	call	__printf_chk@PLT
	addl	$1, %ebx
.L4:
	cmpl	%ebp, %ebx
	jl	.L5
	popq	%rbx
	.cfi_def_cfa_offset 24
	popq	%rbp
	.cfi_def_cfa_offset 16
	popq	%r12
	.cfi_def_cfa_offset 8
	ret
	.cfi_endproc
.LFE40:
	.size	showArr, .-showArr
	.globl	main
	.type	main, @function
main:
.LFB41:
	.cfi_startproc
	endbr64
	pushq	%rbx
	.cfi_def_cfa_offset 16
	.cfi_offset 3, -16
	movl	$8, %edi
	call	malloc@PLT
	movq	%rax, %rbx
	movq	%rax, %rdi
	call	manageArr
	movl	$2, %esi
	movq	%rbx, %rdi
	call	showArr
	movq	%rbx, %rdi
	call	free@PLT
	movl	$0, %eax
	popq	%rbx
	.cfi_def_cfa_offset 8
	ret
	.cfi_endproc
.LFE41:
	.size	main, .-main
	.ident	"GCC: (Ubuntu 11.4.0-1ubuntu1~22.04) 11.4.0"
	.section	.note.GNU-stack,"",@progbits
	.section	.note.gnu.property,"a"
	.align 8
	.long	1f - 0f
	.long	4f - 1f
	.long	5
0:
	.string	"GNU"
1:
	.align 8
	.long	0xc0000002
	.long	3f - 2f
2:
	.long	0x3
3:
	.align 8
4:
